target datalayout = "e-m:e-p270:32:32-p271:32:32-p272:64:64-i64:64-i128:128-f80:128-n8:16:32:64-S128"
target triple = "x86_64-pc-linux-gnu"

%union.SourceSpan = type { i64 }
%struct.Decl_ = type { ptr, ptr, %union.SourceSpan, i64, %union.anon.26, i32, %union.anon.27, i64, ptr, ptr, ptr, %union.anon.28 }
%union.anon.26 = type { ptr }
%union.anon.27 = type { i16 }
%union.anon.28 = type { %struct.FuncDecl }
%struct.FuncDecl = type { i32, [4 x i8], %struct.Signature_, i32, i32, %union.anon.35 }
%struct.Signature_ = type <{ %struct.CalleeAttributes, i16, i8, i32, i32, [4 x i8], ptr }>
%struct.CalleeAttributes = type { i8 }
%union.anon.35 = type { %struct.anon.36 }
%struct.anon.36 = type { i16, %union.anon.37 }
%union.anon.37 = type { ptr }
%struct.Type_ = type { i32, ptr, ptr, ptr, %union.anon.85, ptr, ptr, %union.anon.87 }
%union.anon.85 = type { ptr }
%union.anon.87 = type { %struct.TypeFunction }
%struct.TypeFunction = type { ptr, ptr, ptr }

; Function Attrs: nounwind uwtable
define dso_local void @copy_decl_type(ptr noundef %0) #0 {
  %2 = alloca i32, align 4
  %3 = alloca ptr, align 8
  %4 = alloca ptr, align 8
  %5 = alloca ptr, align 8
  %6 = alloca ptr, align 8
  %7 = alloca ptr, align 8
  store ptr %0, ptr %5, align 8
  %8 = load ptr, ptr %5, align 8
  %9 = getelementptr inbounds %struct.Decl_, ptr %8, i32 0, i32 10
  %10 = load ptr, ptr %9, align 8
  store ptr %10, ptr %6, align 8
  %11 = load ptr, ptr %6, align 8
  %12 = icmp ne ptr %11, null
  br i1 %12, label %14, label %13

13:                                               ; preds = %1
  br label %42

14:                                               ; preds = %1
  %15 = load ptr, ptr %6, align 8
  %16 = getelementptr inbounds %struct.Type_, ptr %15, i32 0, i32 0
  %17 = load i32, ptr %16, align 8
  %18 = load ptr, ptr %6, align 8
  %19 = getelementptr inbounds %struct.Type_, ptr %18, i32 0, i32 2
  %20 = load ptr, ptr %19, align 8
  store i32 %17, ptr %2, align 4
  store ptr %20, ptr %3, align 8
  %21 = call ptr @calloc_arena(i64 noundef 80) #5
  store ptr %21, ptr %4, align 8
  %22 = load i32, ptr %2, align 4
  %23 = load ptr, ptr %4, align 8
  store i32 %22, ptr %23, align 8
  %24 = load ptr, ptr %3, align 8
  %25 = load ptr, ptr %4, align 8
  %26 = getelementptr inbounds %struct.Type_, ptr %25, i32 0, i32 2
  store ptr %24, ptr %26, align 8
  %27 = load ptr, ptr %4, align 8
  call void @global_context_add_type(ptr noundef %27) #5
  %28 = load ptr, ptr %4, align 8
  store ptr %28, ptr %7, align 8
  %29 = load ptr, ptr %7, align 8
  %30 = load ptr, ptr %6, align 8
  call void @llvm.memcpy.p0.p0.i64(ptr align 8 %29, ptr align 8 %30, i64 80, i1 false)
  %31 = load ptr, ptr %7, align 8
  %32 = getelementptr inbounds %struct.Type_, ptr %31, i32 0, i32 3
  store ptr null, ptr %32, align 8
  %33 = load ptr, ptr %5, align 8
  %34 = load ptr, ptr %7, align 8
  %35 = getelementptr inbounds %struct.Type_, ptr %34, i32 0, i32 7
  store ptr %33, ptr %35, align 8
  %36 = load ptr, ptr %7, align 8
  %37 = load ptr, ptr %7, align 8
  %38 = getelementptr inbounds %struct.Type_, ptr %37, i32 0, i32 1
  store ptr %36, ptr %38, align 8
  %39 = load ptr, ptr %7, align 8
  %40 = load ptr, ptr %5, align 8
  %41 = getelementptr inbounds %struct.Decl_, ptr %40, i32 0, i32 10
  store ptr %39, ptr %41, align 8
  br label %42

42:                                               ; preds = %14, %13
  ret void
}