; Function Attrs: nounwind uwtable
define dso_local void @copy_decl_type(ptr noundef %0) local_unnamed_addr #0 {
  %2 = getelementptr inbounds i8, ptr %0, i64 72
  %3 = load ptr, ptr %2, align 8
  %.not = icmp eq ptr %3, null
  br i1 %.not, label %13, label %4

4:                                                ; preds = %1
  %5 = load i32, ptr %3, align 8
  %6 = getelementptr inbounds i8, ptr %3, i64 16
  %7 = load ptr, ptr %6, align 8
  %8 = tail call ptr @calloc_arena(i64 noundef 80) #5
  store i32 %5, ptr %8, align 8
  %9 = getelementptr inbounds i8, ptr %8, i64 16
  store ptr %7, ptr %9, align 8
  tail call void @global_context_add_type(ptr noundef nonnull %8) #5
  tail call void @llvm.memcpy.p0.p0.i64(ptr noundef nonnull align 8 dereferenceable(80) %8, ptr noundef nonnull align 8 dereferenceable(80) %3, i64 80, i1 false)
  %10 = getelementptr inbounds i8, ptr %8, i64 24
  store ptr null, ptr %10, align 8
  %11 = getelementptr inbounds i8, ptr %8, i64 56
  store ptr %0, ptr %11, align 8
  %12 = getelementptr inbounds i8, ptr %8, i64 8
  store ptr %8, ptr %12, align 8
  store ptr %8, ptr %2, align 8
  br label %13

13:                                               ; preds = %1, %4
  ret void
}